; Function Attrs: noreturn nounwind uwtable
define internal fastcc void @do_throw(ptr noundef %0) unnamed_addr #5 {
  %2 = tail call align 8 ptr @llvm.threadlocal.address.p0(ptr align 8 @stack_top)
  %.02025 = load ptr, ptr %2, align 8
  %.not26 = icmp eq ptr %.02025, null
  br i1 %.not26, label %._crit_edge, label %.lr.ph28

.lr.ph28:                                         ; preds = %1
  %3 = getelementptr inbounds nuw i8, ptr %0, i64 8
  br label %4

4:                                                ; preds = %.lr.ph28, %.loopexit
  %.02027 = phi ptr [ %.02025, %.lr.ph28 ], [ %.020, %.loopexit ]
  %5 = getelementptr inbounds nuw i8, ptr %.02027, i64 8
  %6 = load i32, ptr %5, align 8
  %7 = icmp eq i32 %6, 0
  %8 = getelementptr inbounds nuw i8, ptr %.02027, i64 16
  %9 = load ptr, ptr %8, align 8
  %10 = load ptr, ptr %9, align 8
  br i1 %7, label %11, label %14

11:                                               ; preds = %4
  %12 = getelementptr inbounds nuw i8, ptr %9, i64 8
  %13 = load ptr, ptr %12, align 8
  tail call void %10(ptr noundef %13) #19
  br label %.loopexit

14:                                               ; preds = %4
  %15 = getelementptr inbounds nuw i8, ptr %9, i64 40
  %16 = load volatile ptr, ptr %15, align 8
  %17 = load ptr, ptr @deallocator, align 8
  tail call void %17(ptr noundef %16) #19
  %18 = getelementptr inbounds nuw i8, ptr %9, i64 8
  %19 = load i64, ptr %18, align 8
  %.not29 = icmp eq i64 %19, 0
  br i1 %.not29, label %.loopexit, label %.lr.ph

.lr.ph:                                           ; preds = %14, %38
  %.024 = phi i64 [ %40, %38 ], [ 0, %14 ]
  %.01923 = phi ptr [ %39, %38 ], [ %10, %14 ]
  %20 = load i64, ptr %.01923, align 8
  %21 = icmp eq i64 %20, 0
  br i1 %21, label %25, label %22

22:                                               ; preds = %.lr.ph
  %23 = load volatile i64, ptr %0, align 8
  %24 = icmp eq i64 %20, %23
  br label %25

25:                                               ; preds = %22, %.lr.ph
  %26 = phi i1 [ true, %.lr.ph ], [ %24, %22 ]
  %27 = getelementptr inbounds nuw i8, ptr %.01923, i64 8
  %28 = load i64, ptr %27, align 8
  %29 = icmp eq i64 %28, 0
  br i1 %29, label %match.exit, label %30

30:                                               ; preds = %25
  %31 = load volatile i64, ptr %3, align 8
  %32 = icmp eq i64 %28, %31
  br label %match.exit

match.exit:                                       ; preds = %25, %30
  %33 = phi i1 [ true, %25 ], [ %32, %30 ]
  %34 = select i1 %26, i1 %33, i1 false
  br i1 %34, label %35, label %38

35:                                               ; preds = %match.exit
  %36 = getelementptr inbounds nuw i8, ptr %9, i64 16
  tail call void @llvm.memcpy.p0.p0.i64(ptr nonnull align 8 %36, ptr align 8 %0, i64 32, i1 true)
  store ptr %.02027, ptr %2, align 8
  %37 = getelementptr inbounds nuw i8, ptr %9, i64 48
  tail call void @longjmp(ptr noundef nonnull %37, i32 noundef 1) #20
  unreachable

38:                                               ; preds = %match.exit
  %39 = getelementptr i8, ptr %.01923, i64 16
  %40 = add nuw i64 %.024, 1
  %exitcond.not = icmp eq i64 %40, %19
  br i1 %exitcond.not, label %.loopexit, label %.lr.ph, !llvm.loop !4

.loopexit:                                        ; preds = %38, %14, %11
  %.020 = load ptr, ptr %.02027, align 8
  %.not = icmp eq ptr %.020, null
  br i1 %.not, label %._crit_edge, label %4, !llvm.loop !6

._crit_edge:                                      ; preds = %.loopexit, %1
  store ptr null, ptr %2, align 8
  %41 = load ptr, ptr @uh_catcher_ptr, align 8
  tail call void %41(ptr noundef %0) #19
  tail call void @abort() #20
  unreachable
}